; Function Attrs: mustprogress uwtable
define hidden void @_ZNK4cvc58internal6String8toStringB5cxx11Eb(ptr noalias sret(%"class.std::__cxx11::basic_string.4") align 8 %agg.result, ptr nocapture noundef nonnull readonly align 8 dereferenceable(24) %this, i1 noundef zeroext %useEscSequences) local_unnamed_addr #3 align 2 personality ptr @__gxx_personality_v0 {
entry:
  %str = alloca %"class.std::__cxx11::basic_stringstream", align 8
  %ss = alloca %"class.std::__cxx11::basic_stringstream", align 8
  %ref.tmp = alloca %"class.std::__cxx11::basic_string.4", align 8
  call void @_ZNSt7__cxx1118basic_stringstreamIcSt11char_traitsIcESaIcEEC1Ev(ptr noundef nonnull align 8 dereferenceable(128) %str)
  %_M_finish.i.i = getelementptr inbounds i8, ptr %this, i64 8
  %0 = load ptr, ptr %_M_finish.i.i, align 8
  %1 = load ptr, ptr %this, align 8
  %cmp17.not = icmp eq ptr %0, %1
  br i1 %cmp17.not, label %for.end, label %for.body.lr.ph

for.body.lr.ph:                                   ; preds = %entry
  %add.ptr = getelementptr inbounds i8, ptr %str, i64 16
  %add.ptr18 = getelementptr inbounds i8, ptr %ss, i64 16
  br i1 %useEscSequences, label %for.body.us, label %for.body

for.body.us:                                      ; preds = %for.body.lr.ph, %invoke.cont34.us
  %conv19.us = phi i64 [ %conv.us, %invoke.cont34.us ], [ 0, %for.body.lr.ph ]
  %i.018.us = phi i32 [ %inc.us, %invoke.cont34.us ], [ 0, %for.body.lr.ph ]
  invoke void @_ZNSt7__cxx1118basic_stringstreamIcSt11char_traitsIcESaIcEEC1Ev(ptr noundef nonnull align 8 dereferenceable(128) %ss)
          to label %invoke.cont17.us unwind label %lpad.loopexit.split.us

invoke.cont17.us:                                 ; preds = %for.body.us
  %call21.us = invoke noundef nonnull align 8 dereferenceable(8) ptr @_ZNSolsEPFRSt8ios_baseS0_E(ptr noundef nonnull align 8 dereferenceable(8) %add.ptr18, ptr noundef nonnull @_ZSt3hexRSt8ios_base)
          to label %invoke.cont20.us unwind label %lpad19.split.us

invoke.cont20.us:                                 ; preds = %invoke.cont17.us
  %2 = load ptr, ptr %this, align 8
  %add.ptr.i10.us = getelementptr inbounds i32, ptr %2, i64 %conv19.us
  %3 = load i32, ptr %add.ptr.i10.us, align 4
  %call26.us = invoke noundef nonnull align 8 dereferenceable(8) ptr @_ZNSolsEj(ptr noundef nonnull align 8 dereferenceable(8) %call21.us, i32 noundef %3)
          to label %invoke.cont25.us unwind label %lpad19.split.us

invoke.cont25.us:                                 ; preds = %invoke.cont20.us
  %call29.us = invoke noundef nonnull align 8 dereferenceable(8) ptr @_ZStlsISt11char_traitsIcEERSt13basic_ostreamIcT_ES5_PKc(ptr noundef nonnull align 8 dereferenceable(8) %add.ptr, ptr noundef nonnull @.str.2)
          to label %invoke.cont28.us unwind label %lpad19.split.us

invoke.cont28.us:                                 ; preds = %invoke.cont25.us
  invoke void @_ZNKSt7__cxx1118basic_stringstreamIcSt11char_traitsIcESaIcEE3strEv(ptr nonnull sret(%"class.std::__cxx11::basic_string.4") align 8 %ref.tmp, ptr noundef nonnull align 8 dereferenceable(128) %ss)
          to label %invoke.cont30.us unwind label %lpad19.split.us

invoke.cont30.us:                                 ; preds = %invoke.cont28.us
  %call33.us = invoke noundef nonnull align 8 dereferenceable(8) ptr @_ZStlsIcSt11char_traitsIcESaIcEERSt13basic_ostreamIT_T0_ES7_RKNSt7__cxx1112basic_stringIS4_S5_T1_EE(ptr noundef nonnull align 8 dereferenceable(8) %call29.us, ptr noundef nonnull align 8 dereferenceable(32) %ref.tmp)
          to label %invoke.cont32.us unwind label %lpad31.split.us

invoke.cont32.us:                                 ; preds = %invoke.cont30.us
  %call35.us = invoke noundef nonnull align 8 dereferenceable(8) ptr @_ZStlsISt11char_traitsIcEERSt13basic_ostreamIcT_ES5_PKc(ptr noundef nonnull align 8 dereferenceable(8) %call33.us, ptr noundef nonnull @.str.3)
          to label %invoke.cont34.us unwind label %lpad31.split.us

invoke.cont34.us:                                 ; preds = %invoke.cont32.us
  call void @_ZNSt7__cxx1112basic_stringIcSt11char_traitsIcESaIcEED1Ev(ptr noundef nonnull align 8 dereferenceable(32) %ref.tmp) #18
  call void @_ZNSt7__cxx1118basic_stringstreamIcSt11char_traitsIcESaIcEED1Ev(ptr noundef nonnull align 8 dereferenceable(128) %ss) #18
  %inc.us = add i32 %i.018.us, 1
  %conv.us = zext i32 %inc.us to i64
  %4 = load ptr, ptr %_M_finish.i.i, align 8
  %5 = load ptr, ptr %this, align 8
  %sub.ptr.lhs.cast.i.i.us = ptrtoint ptr %4 to i64
  %sub.ptr.rhs.cast.i.i.us = ptrtoint ptr %5 to i64
  %sub.ptr.sub.i.i.us = sub i64 %sub.ptr.lhs.cast.i.i.us, %sub.ptr.rhs.cast.i.i.us
  %sub.ptr.div.i.i.us = ashr exact i64 %sub.ptr.sub.i.i.us, 2
  %cmp.us = icmp ugt i64 %sub.ptr.div.i.i.us, %conv.us
  br i1 %cmp.us, label %for.body.us, label %for.end, !llvm.loop !32

lpad.loopexit.split.us:                           ; preds = %for.body.us
  %lpad.loopexit11.us = landingpad { ptr, i32 }
          cleanup
  br label %ehcleanup37

lpad19.split.us:                                  ; preds = %invoke.cont28.us, %invoke.cont25.us, %invoke.cont20.us, %invoke.cont17.us
  %6 = landingpad { ptr, i32 }
          cleanup
  br label %ehcleanup

lpad31.split.us:                                  ; preds = %invoke.cont32.us, %invoke.cont30.us
  %7 = landingpad { ptr, i32 }
          cleanup
  br label %lpad31

for.body:                                         ; preds = %for.body.lr.ph, %for.inc
  %8 = phi ptr [ %17, %for.inc ], [ %1, %for.body.lr.ph ]
  %conv19 = phi i64 [ %conv, %for.inc ], [ 0, %for.body.lr.ph ]
  %i.018 = phi i32 [ %inc, %for.inc ], [ 0, %for.body.lr.ph ]
  %add.ptr.i = getelementptr inbounds i32, ptr %8, i64 %conv19
  %9 = load i32, ptr %add.ptr.i, align 4
  %10 = add i32 %9, -127
  %11 = icmp ult i32 %10, -95
  %cmp9.not = icmp eq i32 %9, 92
  %or.cond = or i1 %11, %cmp9.not
  br i1 %or.cond, label %if.else, label %if.then

if.then:                                          ; preds = %for.body
  %conv14 = trunc i32 %9 to i8
  %call16 = invoke noundef nonnull align 8 dereferenceable(8) ptr @_ZStlsISt11char_traitsIcEERSt13basic_ostreamIcT_ES5_c(ptr noundef nonnull align 8 dereferenceable(8) %add.ptr, i8 noundef signext %conv14)
          to label %for.inc unwind label %lpad.loopexit.split

lpad.loopexit.split:                              ; preds = %if.then, %if.else
  %lpad.loopexit11 = landingpad { ptr, i32 }
          cleanup
  br label %ehcleanup37

lpad.loopexit.split-lp:                           ; preds = %for.end
  %lpad.loopexit.split-lp12 = landingpad { ptr, i32 }
          cleanup
  br label %ehcleanup37

if.else:                                          ; preds = %for.body
  invoke void @_ZNSt7__cxx1118basic_stringstreamIcSt11char_traitsIcESaIcEEC1Ev(ptr noundef nonnull align 8 dereferenceable(128) %ss)
          to label %invoke.cont17 unwind label %lpad.loopexit.split

invoke.cont17:                                    ; preds = %if.else
  %call21 = invoke noundef nonnull align 8 dereferenceable(8) ptr @_ZNSolsEPFRSt8ios_baseS0_E(ptr noundef nonnull align 8 dereferenceable(8) %add.ptr18, ptr noundef nonnull @_ZSt3hexRSt8ios_base)
          to label %invoke.cont20 unwind label %lpad19.split

invoke.cont20:                                    ; preds = %invoke.cont17
  %12 = load ptr, ptr %this, align 8
  %add.ptr.i10 = getelementptr inbounds i32, ptr %12, i64 %conv19
  %13 = load i32, ptr %add.ptr.i10, align 4
  %call26 = invoke noundef nonnull align 8 dereferenceable(8) ptr @_ZNSolsEj(ptr noundef nonnull align 8 dereferenceable(8) %call21, i32 noundef %13)
          to label %invoke.cont25 unwind label %lpad19.split

invoke.cont25:                                    ; preds = %invoke.cont20
  %call29 = invoke noundef nonnull align 8 dereferenceable(8) ptr @_ZStlsISt11char_traitsIcEERSt13basic_ostreamIcT_ES5_PKc(ptr noundef nonnull align 8 dereferenceable(8) %add.ptr, ptr noundef nonnull @.str.2)
          to label %invoke.cont28 unwind label %lpad19.split

invoke.cont28:                                    ; preds = %invoke.cont25
  invoke void @_ZNKSt7__cxx1118basic_stringstreamIcSt11char_traitsIcESaIcEE3strEv(ptr nonnull sret(%"class.std::__cxx11::basic_string.4") align 8 %ref.tmp, ptr noundef nonnull align 8 dereferenceable(128) %ss)
          to label %invoke.cont30 unwind label %lpad19.split

invoke.cont30:                                    ; preds = %invoke.cont28
  %call33 = invoke noundef nonnull align 8 dereferenceable(8) ptr @_ZStlsIcSt11char_traitsIcESaIcEERSt13basic_ostreamIT_T0_ES7_RKNSt7__cxx1112basic_stringIS4_S5_T1_EE(ptr noundef nonnull align 8 dereferenceable(8) %call29, ptr noundef nonnull align 8 dereferenceable(32) %ref.tmp)
          to label %invoke.cont32 unwind label %lpad31.split

invoke.cont32:                                    ; preds = %invoke.cont30
  %call35 = invoke noundef nonnull align 8 dereferenceable(8) ptr @_ZStlsISt11char_traitsIcEERSt13basic_ostreamIcT_ES5_PKc(ptr noundef nonnull align 8 dereferenceable(8) %call33, ptr noundef nonnull @.str.3)
          to label %invoke.cont34 unwind label %lpad31.split

invoke.cont34:                                    ; preds = %invoke.cont32
  call void @_ZNSt7__cxx1112basic_stringIcSt11char_traitsIcESaIcEED1Ev(ptr noundef nonnull align 8 dereferenceable(32) %ref.tmp) #18
  call void @_ZNSt7__cxx1118basic_stringstreamIcSt11char_traitsIcESaIcEED1Ev(ptr noundef nonnull align 8 dereferenceable(128) %ss) #18
  br label %for.inc

lpad19.split:                                     ; preds = %invoke.cont28, %invoke.cont25, %invoke.cont20, %invoke.cont17
  %14 = landingpad { ptr, i32 }
          cleanup
  br label %ehcleanup

lpad31.split:                                     ; preds = %invoke.cont32, %invoke.cont30
  %15 = landingpad { ptr, i32 }
          cleanup
  br label %lpad31

lpad31:                                           ; preds = %lpad31.split.us, %lpad31.split
  %.us-phi21 = phi { ptr, i32 } [ %15, %lpad31.split ], [ %7, %lpad31.split.us ]
  call void @_ZNSt7__cxx1112basic_stringIcSt11char_traitsIcESaIcEED1Ev(ptr noundef nonnull align 8 dereferenceable(32) %ref.tmp) #18
  br label %ehcleanup

ehcleanup:                                        ; preds = %lpad19.split, %lpad19.split.us, %lpad31
  %.pn = phi { ptr, i32 } [ %.us-phi21, %lpad31 ], [ %14, %lpad19.split ], [ %6, %lpad19.split.us ]
  call void @_ZNSt7__cxx1118basic_stringstreamIcSt11char_traitsIcESaIcEED1Ev(ptr noundef nonnull align 8 dereferenceable(128) %ss) #18
  br label %ehcleanup37

for.inc:                                          ; preds = %invoke.cont34, %if.then
  %inc = add i32 %i.018, 1
  %conv = zext i32 %inc to i64
  %16 = load ptr, ptr %_M_finish.i.i, align 8
  %17 = load ptr, ptr %this, align 8
  %sub.ptr.lhs.cast.i.i = ptrtoint ptr %16 to i64
  %sub.ptr.rhs.cast.i.i = ptrtoint ptr %17 to i64
  %sub.ptr.sub.i.i = sub i64 %sub.ptr.lhs.cast.i.i, %sub.ptr.rhs.cast.i.i
  %sub.ptr.div.i.i = ashr exact i64 %sub.ptr.sub.i.i, 2
  %cmp = icmp ugt i64 %sub.ptr.div.i.i, %conv
  br i1 %cmp, label %for.body, label %for.end, !llvm.loop !32

for.end:                                          ; preds = %for.inc, %invoke.cont34.us, %entry
  invoke void @_ZNKSt7__cxx1118basic_stringstreamIcSt11char_traitsIcESaIcEE3strEv(ptr sret(%"class.std::__cxx11::basic_string.4") align 8 %agg.result, ptr noundef nonnull align 8 dereferenceable(128) %str)
          to label %invoke.cont36 unwind label %lpad.loopexit.split-lp

invoke.cont36:                                    ; preds = %for.end
  call void @_ZNSt7__cxx1118basic_stringstreamIcSt11char_traitsIcESaIcEED1Ev(ptr noundef nonnull align 8 dereferenceable(128) %str) #18
  ret void

ehcleanup37:                                      ; preds = %lpad.loopexit.split-lp, %lpad.loopexit.split.us, %lpad.loopexit.split, %ehcleanup
  %.pn.pn = phi { ptr, i32 } [ %.pn, %ehcleanup ], [ %lpad.loopexit.split-lp12, %lpad.loopexit.split-lp ], [ %lpad.loopexit11, %lpad.loopexit.split ], [ %lpad.loopexit11.us, %lpad.loopexit.split.us ]
  call void @_ZNSt7__cxx1118basic_stringstreamIcSt11char_traitsIcESaIcEED1Ev(ptr noundef nonnull align 8 dereferenceable(128) %str) #18
  resume { ptr, i32 } %.pn.pn
}